; Function Attrs: nounwind uwtable
define ptr @l_List_forIn_x27_loop___at_Lean_Elab_Deriving_DecEq_mkMatch_mkAlts___spec__6___boxed(ptr noundef readonly captures(none) %0) local_unnamed_addr #0 {
  %2 = load ptr, ptr %0, align 8, !tbaa !4
  %3 = getelementptr inbounds nuw i8, ptr %0, i64 8
  %4 = load ptr, ptr %3, align 8, !tbaa !4
  %5 = getelementptr inbounds nuw i8, ptr %0, i64 16
  %6 = load ptr, ptr %5, align 8, !tbaa !4
  %7 = getelementptr inbounds nuw i8, ptr %0, i64 24
  %8 = load ptr, ptr %7, align 8, !tbaa !4
  %9 = getelementptr inbounds nuw i8, ptr %0, i64 32
  %10 = load ptr, ptr %9, align 8, !tbaa !4
  %11 = getelementptr inbounds nuw i8, ptr %0, i64 40
  %12 = load ptr, ptr %11, align 8, !tbaa !4
  %13 = getelementptr inbounds nuw i8, ptr %0, i64 48
  %14 = load ptr, ptr %13, align 8, !tbaa !4
  %15 = getelementptr inbounds nuw i8, ptr %0, i64 56
  %16 = load ptr, ptr %15, align 8, !tbaa !4
  %17 = getelementptr inbounds nuw i8, ptr %0, i64 64
  %18 = load ptr, ptr %17, align 8, !tbaa !4
  %19 = getelementptr inbounds nuw i8, ptr %0, i64 80
  %20 = load ptr, ptr %19, align 8, !tbaa !4
  %21 = getelementptr inbounds nuw i8, ptr %0, i64 88
  %22 = load ptr, ptr %21, align 8, !tbaa !4
  %23 = getelementptr inbounds nuw i8, ptr %0, i64 96
  %24 = load ptr, ptr %23, align 8, !tbaa !4
  %25 = getelementptr inbounds nuw i8, ptr %0, i64 104
  %26 = load ptr, ptr %25, align 8, !tbaa !4
  %27 = getelementptr inbounds nuw i8, ptr %0, i64 112
  %28 = load ptr, ptr %27, align 8, !tbaa !4
  %29 = getelementptr inbounds nuw i8, ptr %0, i64 120
  %30 = load ptr, ptr %29, align 8, !tbaa !4
  %31 = getelementptr inbounds nuw i8, ptr %0, i64 128
  %32 = load ptr, ptr %31, align 8, !tbaa !4
  %33 = tail call ptr @l_List_forIn_x27_loop___at_Lean_Elab_Deriving_DecEq_mkMatch_mkAlts___spec__6(ptr noundef %2, ptr noundef %4, ptr poison, ptr poison, ptr noundef %10, ptr noundef %12, ptr poison, ptr noundef %16, ptr noundef %18, ptr poison, ptr noundef %20, ptr noundef %22, ptr noundef %24, ptr noundef %26, ptr noundef %28, ptr noundef %30, ptr noundef %32)
  %34 = ptrtoint ptr %14 to i64
  %35 = and i64 %34, 1
  %.not = icmp eq i64 %35, 0
  br i1 %.not, label %36, label %lean_dec.exit39

36:                                               ; preds = %1
  %37 = load i32, ptr %14, align 4, !tbaa !8
  %38 = icmp sgt i32 %37, 1
  br i1 %38, label %39, label %41, !prof !11

39:                                               ; preds = %36
  %40 = add nsw i32 %37, -1
  store i32 %40, ptr %14, align 4, !tbaa !8
  br label %lean_dec.exit39

41:                                               ; preds = %36
  %.not.i = icmp eq i32 %37, 0
  br i1 %.not.i, label %lean_dec.exit39, label %42

42:                                               ; preds = %41
  tail call void @lean_dec_ref_cold(ptr noundef nonnull %14) #5
  br label %lean_dec.exit39

lean_dec.exit39:                                  ; preds = %42, %41, %39, %1
  %43 = ptrtoint ptr %8 to i64
  %44 = and i64 %43, 1
  %.not44 = icmp eq i64 %44, 0
  br i1 %.not44, label %45, label %lean_dec.exit38

45:                                               ; preds = %lean_dec.exit39
  %46 = load i32, ptr %8, align 4, !tbaa !8
  %47 = icmp sgt i32 %46, 1
  br i1 %47, label %48, label %50, !prof !11

48:                                               ; preds = %45
  %49 = add nsw i32 %46, -1
  store i32 %49, ptr %8, align 4, !tbaa !8
  br label %lean_dec.exit38

50:                                               ; preds = %45
  %.not.i40 = icmp eq i32 %46, 0
  br i1 %.not.i40, label %lean_dec.exit38, label %51

51:                                               ; preds = %50
  tail call void @lean_dec_ref_cold(ptr noundef nonnull %8) #5
  br label %lean_dec.exit38

lean_dec.exit38:                                  ; preds = %51, %50, %48, %lean_dec.exit39
  %52 = ptrtoint ptr %6 to i64
  %53 = and i64 %52, 1
  %.not45 = icmp eq i64 %53, 0
  br i1 %.not45, label %54, label %lean_dec.exit

54:                                               ; preds = %lean_dec.exit38
  %55 = load i32, ptr %6, align 4, !tbaa !8
  %56 = icmp sgt i32 %55, 1
  br i1 %56, label %57, label %59, !prof !11

57:                                               ; preds = %54
  %58 = add nsw i32 %55, -1
  store i32 %58, ptr %6, align 4, !tbaa !8
  br label %lean_dec.exit

59:                                               ; preds = %54
  %.not.i42 = icmp eq i32 %55, 0
  br i1 %.not.i42, label %lean_dec.exit, label %60

60:                                               ; preds = %59
  tail call void @lean_dec_ref_cold(ptr noundef nonnull %6) #5
  br label %lean_dec.exit

lean_dec.exit:                                    ; preds = %60, %59, %57, %lean_dec.exit38
  ret ptr %33
}